target datalayout = "e-m:e-p270:32:32-p271:32:32-p272:64:64-i64:64-i128:128-f80:128-n8:16:32:64-S128"
target triple = "x86_64-pc-linux-gnu"

@simd_enabled = internal global i32 1, align 4
@__cpu_model = external dso_local global { i32, i32, i32, [1 x i32] }

; Function Attrs: nounwind uwtable
define dso_local void @hllMergeDense(ptr noundef %0, ptr noundef %1) #0 {
  %3 = alloca ptr, align 8
  %4 = alloca ptr, align 8
  %5 = alloca i8, align 1
  %6 = alloca i32, align 4
  %7 = alloca ptr, align 8
  %8 = alloca i64, align 8
  %9 = alloca i64, align 8
  %10 = alloca i64, align 8
  %11 = alloca i64, align 8
  %12 = alloca i64, align 8
  store ptr %0, ptr %3, align 8, !tbaa !13
  store ptr %1, ptr %4, align 8, !tbaa !13
  %13 = load i32, ptr @simd_enabled, align 4, !tbaa !9
  %14 = icmp ne i32 %13, 0
  br i1 %14, label %15, label %23

15:                                               ; preds = %2
  %16 = load i32, ptr getelementptr inbounds ({ i32, i32, i32, [1 x i32] }, ptr @__cpu_model, i32 0, i32 3, i32 0), align 4
  %17 = and i32 %16, 1024
  %18 = icmp eq i32 %17, 1024
  %19 = and i1 true, %18
  br i1 %19, label %20, label %23

20:                                               ; preds = %15
  %21 = load ptr, ptr %3, align 8, !tbaa !13
  %22 = load ptr, ptr %4, align 8, !tbaa !13
  call void @hllMergeDenseAVX2(ptr noundef %21, ptr noundef %22)
  br label %83

23:                                               ; preds = %15, %2
  call void @llvm.lifetime.start.p0(i64 1, ptr %5) #15
  call void @llvm.lifetime.start.p0(i64 4, ptr %6) #15
  store i32 0, ptr %6, align 4, !tbaa !9
  br label %24

24:                                               ; preds = %79, %23
  %25 = load i32, ptr %6, align 4, !tbaa !9
  %26 = icmp slt i32 %25, 16384
  br i1 %26, label %28, label %27

27:                                               ; preds = %24
  call void @llvm.lifetime.end.p0(i64 4, ptr %6) #15
  br label %82

28:                                               ; preds = %24
  br label %29

29:                                               ; preds = %28
  call void @llvm.lifetime.start.p0(i64 8, ptr %7) #15
  %30 = load ptr, ptr %4, align 8, !tbaa !13
  store ptr %30, ptr %7, align 8, !tbaa !13
  call void @llvm.lifetime.start.p0(i64 8, ptr %8) #15
  %31 = load i32, ptr %6, align 4, !tbaa !9
  %32 = mul nsw i32 %31, 6
  %33 = sdiv i32 %32, 8
  %34 = sext i32 %33 to i64
  store i64 %34, ptr %8, align 8, !tbaa !11
  call void @llvm.lifetime.start.p0(i64 8, ptr %9) #15
  %35 = load i32, ptr %6, align 4, !tbaa !9
  %36 = mul nsw i32 %35, 6
  %37 = and i32 %36, 7
  %38 = sext i32 %37 to i64
  store i64 %38, ptr %9, align 8, !tbaa !11
  call void @llvm.lifetime.start.p0(i64 8, ptr %10) #15
  %39 = load i64, ptr %9, align 8, !tbaa !11
  %40 = sub i64 8, %39
  store i64 %40, ptr %10, align 8, !tbaa !11
  call void @llvm.lifetime.start.p0(i64 8, ptr %11) #15
  %41 = load ptr, ptr %7, align 8, !tbaa !13
  %42 = load i64, ptr %8, align 8, !tbaa !11
  %43 = getelementptr inbounds nuw i8, ptr %41, i64 %42
  %44 = load i8, ptr %43, align 1, !tbaa !17
  %45 = zext i8 %44 to i64
  store i64 %45, ptr %11, align 8, !tbaa !11
  call void @llvm.lifetime.start.p0(i64 8, ptr %12) #15
  %46 = load ptr, ptr %7, align 8, !tbaa !13
  %47 = load i64, ptr %8, align 8, !tbaa !11
  %48 = add i64 %47, 1
  %49 = getelementptr inbounds nuw i8, ptr %46, i64 %48
  %50 = load i8, ptr %49, align 1, !tbaa !17
  %51 = zext i8 %50 to i64
  store i64 %51, ptr %12, align 8, !tbaa !11
  %52 = load i64, ptr %11, align 8, !tbaa !11
  %53 = load i64, ptr %9, align 8, !tbaa !11
  %54 = lshr i64 %52, %53
  %55 = load i64, ptr %12, align 8, !tbaa !11
  %56 = load i64, ptr %10, align 8, !tbaa !11
  %57 = shl i64 %55, %56
  %58 = or i64 %54, %57
  %59 = and i64 %58, 63
  %60 = trunc i64 %59 to i8
  store i8 %60, ptr %5, align 1, !tbaa !17
  call void @llvm.lifetime.end.p0(i64 8, ptr %12) #15
  call void @llvm.lifetime.end.p0(i64 8, ptr %11) #15
  call void @llvm.lifetime.end.p0(i64 8, ptr %10) #15
  call void @llvm.lifetime.end.p0(i64 8, ptr %9) #15
  call void @llvm.lifetime.end.p0(i64 8, ptr %8) #15
  call void @llvm.lifetime.end.p0(i64 8, ptr %7) #15
  br label %61

61:                                               ; preds = %29
  br label %62

62:                                               ; preds = %61
  %63 = load i8, ptr %5, align 1, !tbaa !17
  %64 = zext i8 %63 to i32
  %65 = load ptr, ptr %3, align 8, !tbaa !13
  %66 = load i32, ptr %6, align 4, !tbaa !9
  %67 = sext i32 %66 to i64
  %68 = getelementptr inbounds i8, ptr %65, i64 %67
  %69 = load i8, ptr %68, align 1, !tbaa !17
  %70 = zext i8 %69 to i32
  %71 = icmp sgt i32 %64, %70
  br i1 %71, label %72, label %78

72:                                               ; preds = %62
  %73 = load i8, ptr %5, align 1, !tbaa !17
  %74 = load ptr, ptr %3, align 8, !tbaa !13
  %75 = load i32, ptr %6, align 4, !tbaa !9
  %76 = sext i32 %75 to i64
  %77 = getelementptr inbounds i8, ptr %74, i64 %76
  store i8 %73, ptr %77, align 1, !tbaa !17
  br label %78

78:                                               ; preds = %72, %62
  br label %79

79:                                               ; preds = %78
  %80 = load i32, ptr %6, align 4, !tbaa !9
  %81 = add nsw i32 %80, 1
  store i32 %81, ptr %6, align 4, !tbaa !9
  br label %24, !llvm.loop !79

82:                                               ; preds = %27
  call void @llvm.lifetime.end.p0(i64 1, ptr %5) #15
  br label %83

83:                                               ; preds = %82, %20
  ret void
}