; Function Attrs: nofree norecurse nosync nounwind memory(read, argmem: readwrite, inaccessiblemem: none) uwtable
define dso_local void @hllMergeDense(ptr noundef captures(none) %0, ptr noundef readonly captures(none) %1) local_unnamed_addr #16 {
  %.b = load i1, ptr @simd_enabled, align 4
  br i1 %.b, label %.preheader, label %3

.preheader:                                       ; preds = %3, %2
  br label %7

3:                                                ; preds = %2
  %4 = load i32, ptr getelementptr inbounds nuw (i8, ptr @__cpu_model, i64 12), align 4
  %5 = and i32 %4, 1024
  %.not = icmp eq i32 %5, 0
  br i1 %.not, label %.preheader, label %6

6:                                                ; preds = %3
  tail call void @hllMergeDenseAVX2(ptr noundef %0, ptr noundef %1)
  br label %.loopexit

7:                                                ; preds = %.preheader, %23
  %indvars.iv = phi i64 [ %indvars.iv.next, %23 ], [ 0, %.preheader ]
  %8 = trunc i64 %indvars.iv to i32
  %9 = mul i32 %8, 6
  %10 = lshr i32 %9, 3
  %11 = zext nneg i32 %10 to i64
  %12 = getelementptr inbounds nuw i8, ptr %1, i64 %11
  %13 = load i8, ptr %12, align 1, !tbaa !11
  %14 = getelementptr inbounds nuw i8, ptr %12, i64 1
  %15 = load i8, ptr %14, align 1, !tbaa !11
  %16 = trunc i32 %9 to i8
  %17 = tail call i8 @llvm.fshr.i8(i8 %15, i8 %13, i8 %16)
  %18 = and i8 %17, 63
  %19 = getelementptr inbounds nuw i8, ptr %0, i64 %indvars.iv
  %20 = load i8, ptr %19, align 1, !tbaa !11
  %21 = icmp ugt i8 %18, %20
  br i1 %21, label %22, label %23

22:                                               ; preds = %7
  store i8 %18, ptr %19, align 1, !tbaa !11
  br label %23

23:                                               ; preds = %7, %22
  %indvars.iv.next = add nuw nsw i64 %indvars.iv, 1
  %exitcond.not = icmp eq i64 %indvars.iv.next, 16384
  br i1 %exitcond.not, label %.loopexit, label %7, !llvm.loop !60

.loopexit:                                        ; preds = %23, %6
  ret void
}